Certificate:
    Data:
        Version: 3 (0x2)
        Serial Number:
            53:91:cf:3c:2e:8b:bc:20:84:23:ab:7e:28:7a:5f:78:e5:7a:9c:98
        Signature Algorithm: sha256WithRSAEncryption
        Issuer: C=IT, ST=Piemonte, O=PDS_Backup, OU=PDS_Backup_Unit, CN=PDS_Backup
        Validity
            Not Before: Oct  8 18:22:40 2020 GMT
            Not After : Oct  8 18:22:40 2023 GMT
        Subject: C=IT, ST=Piemonte, O=PDS_Backup, OU=PDS_Backup_Unit, CN=PDS_Backup
        Subject Public Key Info:
            Public Key Algorithm: rsaEncryption
                RSA Public-Key: (2048 bit)
                Modulus:
                    00:b3:e2:e8:b5:8a:8b:20:02:57:a5:37:d5:4f:e2:
                    51:50:f2:93:0e:02:b0:86:a0:42:b0:5e:87:b4:78:
                    53:38:a7:c9:13:f8:30:e5:d3:a0:70:ff:dd:e4:eb:
                    63:10:e9:d4:8d:8f:cb:27:aa:85:ac:b8:31:e4:bb:
                    1c:d9:94:bd:af:ed:78:e3:3a:6d:44:a9:0d:b6:7b:
                    8a:d5:63:7b:4f:24:6e:5e:84:c9:ee:32:52:32:ed:
                    8f:0b:8f:93:36:8a:bc:c1:45:98:2b:75:70:0b:20:
                    b1:d7:c0:f5:72:d8:9d:68:c0:a1:39:3e:0b:3a:c1:
                    97:f0:86:d0:a0:af:cb:7b:86:44:a2:50:e3:1c:3f:
                    95:21:93:5f:00:8a:b4:83:6a:68:64:59:6f:27:cd:
                    69:ce:71:97:41:39:13:86:7c:d1:27:ff:be:d9:87:
                    3b:58:b6:31:dc:92:41:6d:18:17:a3:f8:db:86:66:
                    ea:01:c3:90:5a:97:54:0b:d6:f2:45:61:8e:5b:45:
                    71:ba:4e:a4:e7:3c:70:cc:86:83:0f:c5:4e:1a:bc:
                    d7:3e:77:f4:94:51:12:d1:81:6c:b5:6f:e3:fb:7c:
                    72:7e:9a:c2:b8:8c:94:c1:3d:db:f8:08:6e:f9:3b:
                    95:7c:b4:20:e3:33:f3:d4:52:3a:c0:8c:77:f1:6b:
                    53:c9
                Exponent: 65537 (0x10001)
        X509v3 extensions:
            X509v3 Subject Key Identifier: 
                19:68:75:3C:9F:02:0D:28:01:B4:D5:42:F4:78:EF:1B:DC:60:7A:95
            X509v3 Authority Key Identifier: 
                keyid:19:68:75:3C:9F:02:0D:28:01:B4:D5:42:F4:78:EF:1B:DC:60:7A:95

            X509v3 Basic Constraints: critical
                CA:TRUE
    Signature Algorithm: sha256WithRSAEncryption
         ac:2a:c9:fb:8b:43:68:f3:7b:13:e4:70:7e:2b:8e:ac:d5:de:
         f5:c8:e1:2b:b9:0c:9a:66:9b:a8:fd:be:c1:1a:19:67:69:78:
         d3:cc:a6:f0:62:21:e6:3a:68:61:a8:3a:eb:20:4c:e1:14:d2:
         63:21:54:8d:67:53:8d:90:50:ff:b9:cf:da:75:2f:41:e5:af:
         01:67:b3:c3:8b:b0:24:e9:6e:44:26:af:66:b2:13:14:d8:53:
         49:62:9b:bd:7b:d7:16:32:83:cb:e2:22:cf:db:e2:b9:f4:e0:
         d1:a7:d2:7d:57:e4:6e:12:88:6c:ab:05:f0:eb:e8:f5:5d:d0:
         3c:b1:25:6b:f7:dd:c0:2d:85:be:24:9e:d1:61:91:dc:ff:46:
         7a:a1:dc:0f:f6:4e:4c:9c:8b:b5:70:65:7f:f7:6e:95:ae:91:
         fb:8b:3b:9b:83:9a:1c:d9:ae:9e:eb:03:1f:b5:0d:68:c3:19:
         3b:0d:30:1a:6b:a3:53:a3:f5:41:d9:81:a8:b9:65:01:25:61:
         df:a2:d4:35:7f:45:b4:36:11:7e:31:93:87:2e:b6:4e:02:c4:
         20:09:42:09:9d:7b:c6:3b:fa:87:f4:86:f9:64:b3:de:af:63:
         50:d1:20:33:7f:65:54:13:66:67:12:58:ad:f1:43:08:1d:ae:
         9e:1b:eb:f8
-----BEGIN CERTIFICATE-----
MIIDqTCCApGgAwIBAgIUU5HPPC6LvCCEI6t+KHpfeOV6nJgwDQYJKoZIhvcNAQEL
BQAwZDELMAkGA1UEBhMCSVQxETAPBgNVBAgMCFBpZW1vbnRlMRMwEQYDVQQKDApQ
RFNfQmFja3VwMRgwFgYDVQQLDA9QRFNfQmFja3VwX1VuaXQxEzARBgNVBAMMClBE
U19CYWNrdXAwHhcNMjAxMDA4MTgyMjQwWhcNMjMxMDA4MTgyMjQwWjBkMQswCQYD
VQQGEwJJVDERMA8GA1UECAwIUGllbW9udGUxEzARBgNVBAoMClBEU19CYWNrdXAx
GDAWBgNVBAsMD1BEU19CYWNrdXBfVW5pdDETMBEGA1UEAwwKUERTX0JhY2t1cDCC
ASIwDQYJKoZIhvcNAQEBBQADggEPADCCAQoCggEBALPi6LWKiyACV6U31U/iUVDy
kw4CsIagQrBeh7R4UzinyRP4MOXToHD/3eTrYxDp1I2Pyyeqhay4MeS7HNmUva/t
eOM6bUSpDbZ7itVje08kbl6Eye4yUjLtjwuPkzaKvMFFmCt1cAsgsdfA9XLYnWjA
oTk+CzrBl/CG0KCvy3uGRKJQ4xw/lSGTXwCKtINqaGRZbyfNac5xl0E5E4Z80Sf/
vtmHO1i2MdySQW0YF6P424Zm6gHDkFqXVAvW8kVhjltFcbpOpOc8cMyGgw/FThq8
1z539JRREtGBbLVv4/t8cn6awriMlME92/gIbvk7lXy0IOMz89RSOsCMd/FrU8kC
AwEAAaNTMFEwHQYDVR0OBBYEFBlodTyfAg0oAbTVQvR47xvcYHqVMB8GA1UdIwQY
MBaAFBlodTyfAg0oAbTVQvR47xvcYHqVMA8GA1UdEwEB/wQFMAMBAf8wDQYJKoZI
hvcNAQELBQADggEBAKwqyfuLQ2jzexPkcH4rjqzV3vXI4Su5DJpmm6j9vsEaGWdp
eNPMpvBiIeY6aGGoOusgTOEU0mMhVI1nU42QUP+5z9p1L0HlrwFns8OLsCTpbkQm
r2ayExTYU0lim7171xYyg8viIs/b4rn04NGn0n1X5G4SiGyrBfDr6PVd0DyxJWv3
3cAthb4kntFhkdz/Rnqh3A/2Tkyci7VwZX/3bpWukfuLO5uDmhzZrp7rAx+1DWjD
GTsNMBpro1Oj9UHZgai5ZQElYd+i1DV/RbQ2EX4xk4cutk4CxCAJQgmde8Y7+of0
hvlks96vY1DRIDN/ZVQTZmcSWK3xQwgdrp4b6/g=
-----END CERTIFICATE-----
