Certificate:
    Data:
        Version: 3 (0x2)
        Serial Number:
            53:91:cf:3c:2e:8b:bc:20:84:23:ab:7e:28:7a:5f:78:e5:7a:9c:99
        Signature Algorithm: sha256WithRSAEncryption
        Issuer: C=IT, ST=Piemonte, O=PDS_Backup, OU=PDS_Backup_Unit, CN=PDS_Backup
        Validity
            Not Before: Oct  8 18:23:53 2020 GMT
            Not After : Oct  8 18:23:53 2021 GMT
        Subject: C=IT, ST=Piemonte, O=PDS_Backup, OU=PDS_Backup_Unit, CN=backup_server
        Subject Public Key Info:
            Public Key Algorithm: rsaEncryption
                RSA Public-Key: (2048 bit)
                Modulus:
                    00:ca:fc:d0:b3:0a:57:bd:58:0e:1e:f4:f9:cd:f1:
                    42:71:99:ae:0b:d9:1b:d5:23:5d:9c:ac:8c:5e:fc:
                    e1:3b:15:7f:f5:d2:63:37:78:24:5d:c2:41:8f:78:
                    6f:cb:d6:e2:1b:40:63:14:c2:a6:fd:3a:66:3f:45:
                    2f:3e:09:68:19:cb:8e:a9:ef:6d:d3:c2:31:bc:c9:
                    0d:55:f6:e0:d9:8d:d6:4d:17:5c:af:02:fc:9b:23:
                    e4:9a:4f:9d:7e:d7:e2:73:9f:6a:18:eb:82:7b:86:
                    f3:f7:3c:ec:f9:ca:95:97:42:dd:bf:b8:a1:73:9e:
                    62:e8:21:e7:fb:af:41:d0:1f:14:ea:e8:8b:24:fb:
                    81:4e:d4:13:1b:48:b5:fa:6f:c2:5c:16:b2:60:74:
                    ce:30:8c:1d:f5:14:f0:4c:38:31:55:9d:b6:12:c4:
                    1c:19:f4:39:e7:4a:b5:e7:f1:51:13:38:96:e2:c9:
                    75:c7:43:c3:d6:52:28:d1:80:c4:58:04:55:e4:77:
                    a2:42:bd:66:5b:06:98:41:14:36:e4:ed:41:f9:2b:
                    e6:0f:18:ea:57:12:89:6b:fb:56:2d:e8:ca:03:6a:
                    a9:a9:b0:0e:82:0a:39:30:f5:32:5b:76:43:0d:e4:
                    b2:95:20:07:ee:17:af:a7:4b:39:60:b0:39:28:a1:
                    c7:7d
                Exponent: 65537 (0x10001)
        X509v3 extensions:
            X509v3 Basic Constraints: 
                CA:FALSE
            Netscape Comment: 
                OpenSSL Generated Certificate
            X509v3 Subject Key Identifier: 
                11:AD:17:F9:40:F7:15:1C:F3:5A:81:54:4F:A4:40:86:AA:63:0C:EA
            X509v3 Authority Key Identifier: 
                keyid:19:68:75:3C:9F:02:0D:28:01:B4:D5:42:F4:78:EF:1B:DC:60:7A:95

    Signature Algorithm: sha256WithRSAEncryption
         3f:6a:5b:24:c9:0c:7b:9e:ba:a2:97:68:b7:86:03:7b:36:d3:
         7e:81:47:19:6a:1c:35:2d:bb:57:56:20:40:df:e3:f7:76:91:
         eb:9f:7a:5d:35:a2:5a:b2:cb:6f:b7:67:75:3b:c7:33:2f:1d:
         2f:c6:61:46:49:3d:df:6b:37:5a:16:02:7e:98:fb:10:50:9a:
         05:de:dd:9c:0f:01:2b:3e:06:ff:65:4a:17:91:de:f9:7e:e1:
         a7:0c:65:ef:26:d0:74:9e:49:33:4f:7a:d9:6f:7d:4a:55:7b:
         35:00:77:d4:07:14:72:fc:be:ea:d7:39:66:27:ad:1e:4a:14:
         35:ce:4e:81:34:6b:aa:17:e9:f9:eb:ca:42:d5:c6:74:7b:80:
         39:26:59:47:42:f4:99:32:9a:9a:ac:5c:0d:78:63:eb:88:09:
         24:c1:0c:2d:37:3d:53:b6:43:97:88:45:b1:e8:31:42:b5:1e:
         4e:e2:83:ca:82:6c:73:7b:00:d6:03:d1:79:30:52:e0:ca:8c:
         cb:5b:bd:44:b6:d2:46:30:8f:b0:1d:8c:5b:d8:4b:37:41:04:
         61:95:f7:1d:29:f4:a5:8a:61:6e:67:63:77:16:b4:1f:c3:23:
         ec:16:b2:bf:d3:96:d1:e8:bf:28:88:70:24:b0:66:fa:51:48:
         8d:28:51:55
-----BEGIN CERTIFICATE-----
MIID1DCCArygAwIBAgIUU5HPPC6LvCCEI6t+KHpfeOV6nJkwDQYJKoZIhvcNAQEL
BQAwZDELMAkGA1UEBhMCSVQxETAPBgNVBAgMCFBpZW1vbnRlMRMwEQYDVQQKDApQ
RFNfQmFja3VwMRgwFgYDVQQLDA9QRFNfQmFja3VwX1VuaXQxEzARBgNVBAMMClBE
U19CYWNrdXAwHhcNMjAxMDA4MTgyMzUzWhcNMjExMDA4MTgyMzUzWjBnMQswCQYD
VQQGEwJJVDERMA8GA1UECAwIUGllbW9udGUxEzARBgNVBAoMClBEU19CYWNrdXAx
GDAWBgNVBAsMD1BEU19CYWNrdXBfVW5pdDEWMBQGA1UEAwwNYmFja3VwX3NlcnZl
cjCCASIwDQYJKoZIhvcNAQEBBQADggEPADCCAQoCggEBAMr80LMKV71YDh70+c3x
QnGZrgvZG9UjXZysjF784TsVf/XSYzd4JF3CQY94b8vW4htAYxTCpv06Zj9FLz4J
aBnLjqnvbdPCMbzJDVX24NmN1k0XXK8C/Jsj5JpPnX7X4nOfahjrgnuG8/c87PnK
lZdC3b+4oXOeYugh5/uvQdAfFOroiyT7gU7UExtItfpvwlwWsmB0zjCMHfUU8Ew4
MVWdthLEHBn0OedKtefxURM4luLJdcdDw9ZSKNGAxFgEVeR3okK9ZlsGmEEUNuTt
Qfkr5g8Y6lcSiWv7Vi3oygNqqamwDoIKOTD1Mlt2Qw3kspUgB+4Xr6dLOWCwOSih
x30CAwEAAaN7MHkwCQYDVR0TBAIwADAsBglghkgBhvhCAQ0EHxYdT3BlblNTTCBH
ZW5lcmF0ZWQgQ2VydGlmaWNhdGUwHQYDVR0OBBYEFBGtF/lA9xUc81qBVE+kQIaq
YwzqMB8GA1UdIwQYMBaAFBlodTyfAg0oAbTVQvR47xvcYHqVMA0GCSqGSIb3DQEB
CwUAA4IBAQA/alskyQx7nrqil2i3hgN7NtN+gUcZahw1LbtXViBA3+P3dpHrn3pd
NaJasstvt2d1O8czLx0vxmFGST3fazdaFgJ+mPsQUJoF3t2cDwErPgb/ZUoXkd75
fuGnDGXvJtB0nkkzT3rZb31KVXs1AHfUBxRy/L7q1zlmJ60eShQ1zk6BNGuqF+n5
68pC1cZ0e4A5JllHQvSZMpqarFwNeGPriAkkwQwtNz1TtkOXiEWx6DFCtR5O4oPK
gmxzewDWA9F5MFLgyozLW71EttJGMI+wHYxb2Es3QQRhlfcdKfSlimFuZ2N3FrQf
wyPsFrK/05bR6L8oiHAksGb6UUiNKFFV
-----END CERTIFICATE-----
